target datalayout = "e-m:e-p270:32:32-p271:32:32-p272:64:64-i64:64-i128:128-f80:128-n8:16:32:64-S128"
target triple = "x86_64-pc-linux-gnu"

%struct.FunctionCallInfoBaseData = type { ptr, ptr, ptr, i32, i8, i16, [0 x %struct.NullableDatum] }
%struct.NullableDatum = type { i64, i8 }
%struct.LockInstanceData = type { %struct.LOCKTAG, i32, i32, %struct.VirtualTransactionId, i64, i32, i32, i8 }
%struct.LOCKTAG = type { i32, i32, i32, i16, i8, i8 }
%struct.VirtualTransactionId = type { i32, i32 }
%struct.BlockedProcsData = type { ptr, ptr, ptr, i32, i32, i32, i32, i32, i32 }
%struct.BlockedProcData = type { i32, i32, i32, i32, i32 }
%struct.LockMethodData = type { i32, ptr, ptr, ptr }

; Function Attrs: inlinehint nounwind uwtable
define internal i64 @PointerGetDatum(ptr noundef %0) #3 {
  %2 = alloca ptr, align 8
  store ptr %0, ptr %2, align 8
  %3 = load ptr, ptr %2, align 8
  %4 = ptrtoint ptr %3 to i64
  ret i64 %4
}

; Function Attrs: inlinehint nounwind uwtable
define internal i64 @Int32GetDatum(i32 noundef %0) #3 {
  %2 = alloca i32, align 4
  store i32 %0, ptr %2, align 4
  %3 = load i32, ptr %2, align 4
  %4 = sext i32 %3 to i64
  ret i64 %4
}

; Function Attrs: inlinehint nounwind uwtable
define internal i32 @DatumGetInt32(i64 noundef %0) #3 {
  %2 = alloca i64, align 8
  store i64 %0, ptr %2, align 8
  %3 = load i64, ptr %2, align 8
  %4 = trunc i64 %3 to i32
  ret i32 %4
}

; Function Attrs: nounwind uwtable
define dso_local i64 @pg_blocking_pids(ptr noundef %0) #0 {
  %2 = alloca ptr, align 8
  %3 = alloca i32, align 4
  %4 = alloca ptr, align 8
  %5 = alloca i32, align 4
  %6 = alloca ptr, align 8
  %7 = alloca i32, align 4
  %8 = alloca i32, align 4
  %9 = alloca ptr, align 8
  %10 = alloca ptr, align 8
  %11 = alloca ptr, align 8
  %12 = alloca ptr, align 8
  %13 = alloca ptr, align 8
  %14 = alloca i32, align 4
  %15 = alloca ptr, align 8
  %16 = alloca ptr, align 8
  %17 = alloca i32, align 4
  %18 = alloca i8, align 1
  %19 = alloca i32, align 4
  store ptr %0, ptr %2, align 8
  call void @llvm.lifetime.start.p0(i64 4, ptr %3) #5
  %20 = load ptr, ptr %2, align 8
  %21 = getelementptr inbounds nuw %struct.FunctionCallInfoBaseData, ptr %20, i32 0, i32 6
  %22 = getelementptr inbounds [0 x %struct.NullableDatum], ptr %21, i64 0, i64 0
  %23 = getelementptr inbounds nuw %struct.NullableDatum, ptr %22, i32 0, i32 0
  %24 = load i64, ptr %23, align 8
  %25 = call i32 @DatumGetInt32(i64 noundef %24)
  store i32 %25, ptr %3, align 4
  call void @llvm.lifetime.start.p0(i64 8, ptr %4) #5
  call void @llvm.lifetime.start.p0(i64 4, ptr %5) #5
  call void @llvm.lifetime.start.p0(i64 8, ptr %6) #5
  call void @llvm.lifetime.start.p0(i64 4, ptr %7) #5
  call void @llvm.lifetime.start.p0(i64 4, ptr %8) #5
  %26 = load i32, ptr %3, align 4
  %27 = call ptr @GetBlockerStatusData(i32 noundef %26)
  store ptr %27, ptr %6, align 8
  %28 = load ptr, ptr %6, align 8
  %29 = getelementptr inbounds nuw %struct.BlockedProcsData, ptr %28, i32 0, i32 5
  %30 = load i32, ptr %29, align 8
  %31 = sext i32 %30 to i64
  %32 = mul i64 %31, 8
  %33 = call ptr @palloc(i64 noundef %32)
  store ptr %33, ptr %4, align 8
  store i32 0, ptr %5, align 4
  store i32 0, ptr %7, align 4
  br label %34

34:                                               ; preds = %194, %1
  %35 = load i32, ptr %7, align 4
  %36 = load ptr, ptr %6, align 8
  %37 = getelementptr inbounds nuw %struct.BlockedProcsData, ptr %36, i32 0, i32 3
  %38 = load i32, ptr %37, align 8
  %39 = icmp slt i32 %35, %38
  br i1 %39, label %40, label %197

40:                                               ; preds = %34
  call void @llvm.lifetime.start.p0(i64 8, ptr %9) #5
  %41 = load ptr, ptr %6, align 8
  %42 = getelementptr inbounds nuw %struct.BlockedProcsData, ptr %41, i32 0, i32 0
  %43 = load ptr, ptr %42, align 8
  %44 = load i32, ptr %7, align 4
  %45 = sext i32 %44 to i64
  %46 = getelementptr inbounds %struct.BlockedProcData, ptr %43, i64 %45
  store ptr %46, ptr %9, align 8
  call void @llvm.lifetime.start.p0(i64 8, ptr %10) #5
  %47 = load ptr, ptr %6, align 8
  %48 = getelementptr inbounds nuw %struct.BlockedProcsData, ptr %47, i32 0, i32 1
  %49 = load ptr, ptr %48, align 8
  %50 = load ptr, ptr %9, align 8
  %51 = getelementptr inbounds nuw %struct.BlockedProcData, ptr %50, i32 0, i32 1
  %52 = load i32, ptr %51, align 4
  %53 = sext i32 %52 to i64
  %54 = getelementptr inbounds %struct.LockInstanceData, ptr %49, i64 %53
  store ptr %54, ptr %10, align 8
  call void @llvm.lifetime.start.p0(i64 8, ptr %11) #5
  %55 = load ptr, ptr %6, align 8
  %56 = getelementptr inbounds nuw %struct.BlockedProcsData, ptr %55, i32 0, i32 2
  %57 = load ptr, ptr %56, align 8
  %58 = load ptr, ptr %9, align 8
  %59 = getelementptr inbounds nuw %struct.BlockedProcData, ptr %58, i32 0, i32 3
  %60 = load i32, ptr %59, align 4
  %61 = sext i32 %60 to i64
  %62 = getelementptr inbounds i32, ptr %57, i64 %61
  store ptr %62, ptr %11, align 8
  call void @llvm.lifetime.start.p0(i64 8, ptr %12) #5
  call void @llvm.lifetime.start.p0(i64 8, ptr %13) #5
  call void @llvm.lifetime.start.p0(i64 4, ptr %14) #5
  store ptr null, ptr %12, align 8
  store i32 0, ptr %8, align 4
  br label %63

63:                                               ; preds = %84, %40
  %64 = load i32, ptr %8, align 4
  %65 = load ptr, ptr %9, align 8
  %66 = getelementptr inbounds nuw %struct.BlockedProcData, ptr %65, i32 0, i32 2
  %67 = load i32, ptr %66, align 4
  %68 = icmp slt i32 %64, %67
  br i1 %68, label %69, label %87

69:                                               ; preds = %63
  call void @llvm.lifetime.start.p0(i64 8, ptr %15) #5
  %70 = load ptr, ptr %10, align 8
  %71 = load i32, ptr %8, align 4
  %72 = sext i32 %71 to i64
  %73 = getelementptr inbounds %struct.LockInstanceData, ptr %70, i64 %72
  store ptr %73, ptr %15, align 8
  %74 = load ptr, ptr %15, align 8
  %75 = getelementptr inbounds nuw %struct.LockInstanceData, ptr %74, i32 0, i32 5
  %76 = load i32, ptr %75, align 8
  %77 = load ptr, ptr %9, align 8
  %78 = getelementptr inbounds nuw %struct.BlockedProcData, ptr %77, i32 0, i32 0
  %79 = load i32, ptr %78, align 4
  %80 = icmp eq i32 %76, %79
  br i1 %80, label %81, label %83

81:                                               ; preds = %69
  %82 = load ptr, ptr %15, align 8
  store ptr %82, ptr %12, align 8
  br label %83

83:                                               ; preds = %81, %69
  call void @llvm.lifetime.end.p0(i64 8, ptr %15) #5
  br label %84

84:                                               ; preds = %83
  %85 = load i32, ptr %8, align 4
  %86 = add i32 %85, 1
  store i32 %86, ptr %8, align 4
  br label %63, !llvm.loop !9

87:                                               ; preds = %63
  %88 = load ptr, ptr %12, align 8
  %89 = getelementptr inbounds nuw %struct.LockInstanceData, ptr %88, i32 0, i32 0
  %90 = call ptr @GetLockTagsMethodTable(ptr noundef %89)
  store ptr %90, ptr %13, align 8
  %91 = load ptr, ptr %13, align 8
  %92 = getelementptr inbounds nuw %struct.LockMethodData, ptr %91, i32 0, i32 1
  %93 = load ptr, ptr %92, align 8
  %94 = load ptr, ptr %12, align 8
  %95 = getelementptr inbounds nuw %struct.LockInstanceData, ptr %94, i32 0, i32 2
  %96 = load i32, ptr %95, align 4
  %97 = sext i32 %96 to i64
  %98 = getelementptr inbounds i32, ptr %93, i64 %97
  %99 = load i32, ptr %98, align 4
  store i32 %99, ptr %14, align 4
  store i32 0, ptr %8, align 4
  br label %100

100:                                              ; preds = %190, %87
  %101 = load i32, ptr %8, align 4
  %102 = load ptr, ptr %9, align 8
  %103 = getelementptr inbounds nuw %struct.BlockedProcData, ptr %102, i32 0, i32 2
  %104 = load i32, ptr %103, align 4
  %105 = icmp slt i32 %101, %104
  br i1 %105, label %106, label %193

106:                                              ; preds = %100
  call void @llvm.lifetime.start.p0(i64 8, ptr %16) #5
  %107 = load ptr, ptr %10, align 8
  %108 = load i32, ptr %8, align 4
  %109 = sext i32 %108 to i64
  %110 = getelementptr inbounds %struct.LockInstanceData, ptr %107, i64 %109
  store ptr %110, ptr %16, align 8
  %111 = load ptr, ptr %16, align 8
  %112 = load ptr, ptr %12, align 8
  %113 = icmp eq ptr %111, %112
  br i1 %113, label %114, label %115

114:                                              ; preds = %106
  store i32 10, ptr %17, align 4
  br label %187

115:                                              ; preds = %106
  %116 = load ptr, ptr %16, align 8
  %117 = getelementptr inbounds nuw %struct.LockInstanceData, ptr %116, i32 0, i32 6
  %118 = load i32, ptr %117, align 4
  %119 = load ptr, ptr %12, align 8
  %120 = getelementptr inbounds nuw %struct.LockInstanceData, ptr %119, i32 0, i32 6
  %121 = load i32, ptr %120, align 4
  %122 = icmp eq i32 %118, %121
  br i1 %122, label %123, label %124

123:                                              ; preds = %115
  store i32 10, ptr %17, align 4
  br label %187

124:                                              ; preds = %115
  %125 = load i32, ptr %14, align 4
  %126 = load ptr, ptr %16, align 8
  %127 = getelementptr inbounds nuw %struct.LockInstanceData, ptr %126, i32 0, i32 1
  %128 = load i32, ptr %127, align 8
  %129 = and i32 %125, %128
  %130 = icmp ne i32 %129, 0
  br i1 %130, label %131, label %132

131:                                              ; preds = %124
  br label %177

132:                                              ; preds = %124
  %133 = load ptr, ptr %16, align 8
  %134 = getelementptr inbounds nuw %struct.LockInstanceData, ptr %133, i32 0, i32 2
  %135 = load i32, ptr %134, align 4
  %136 = icmp ne i32 %135, 0
  br i1 %136, label %137, label %175

137:                                              ; preds = %132
  %138 = load i32, ptr %14, align 4
  %139 = load ptr, ptr %16, align 8
  %140 = getelementptr inbounds nuw %struct.LockInstanceData, ptr %139, i32 0, i32 2
  %141 = load i32, ptr %140, align 4
  %142 = shl i32 1, %141
  %143 = and i32 %138, %142
  %144 = icmp ne i32 %143, 0
  br i1 %144, label %145, label %175

145:                                              ; preds = %137
  call void @llvm.lifetime.start.p0(i64 1, ptr %18) #5
  store i8 0, ptr %18, align 1
  call void @llvm.lifetime.start.p0(i64 4, ptr %19) #5
  store i32 0, ptr %19, align 4
  br label %146

146:                                              ; preds = %164, %145
  %147 = load i32, ptr %19, align 4
  %148 = load ptr, ptr %9, align 8
  %149 = getelementptr inbounds nuw %struct.BlockedProcData, ptr %148, i32 0, i32 4
  %150 = load i32, ptr %149, align 4
  %151 = icmp slt i32 %147, %150
  br i1 %151, label %152, label %167

152:                                              ; preds = %146
  %153 = load ptr, ptr %11, align 8
  %154 = load i32, ptr %19, align 4
  %155 = sext i32 %154 to i64
  %156 = getelementptr inbounds i32, ptr %153, i64 %155
  %157 = load i32, ptr %156, align 4
  %158 = load ptr, ptr %16, align 8
  %159 = getelementptr inbounds nuw %struct.LockInstanceData, ptr %158, i32 0, i32 5
  %160 = load i32, ptr %159, align 8
  %161 = icmp eq i32 %157, %160
  br i1 %161, label %162, label %163

162:                                              ; preds = %152
  store i8 1, ptr %18, align 1
  br label %167

163:                                              ; preds = %152
  br label %164

164:                                              ; preds = %163
  %165 = load i32, ptr %19, align 4
  %166 = add i32 %165, 1
  store i32 %166, ptr %19, align 4
  br label %146, !llvm.loop !10

167:                                              ; preds = %162, %146
  %168 = load i8, ptr %18, align 1, !range !6, !noundef !7
  %169 = trunc i8 %168 to i1
  br i1 %169, label %171, label %170

170:                                              ; preds = %167
  store i32 10, ptr %17, align 4
  br label %172

171:                                              ; preds = %167
  store i32 0, ptr %17, align 4
  br label %172

172:                                              ; preds = %171, %170
  call void @llvm.lifetime.end.p0(i64 4, ptr %19) #5
  call void @llvm.lifetime.end.p0(i64 1, ptr %18) #5
  %173 = load i32, ptr %17, align 4
  switch i32 %173, label %187 [
    i32 0, label %174
  ]

174:                                              ; preds = %172
  br label %176

175:                                              ; preds = %137, %132
  store i32 10, ptr %17, align 4
  br label %187

176:                                              ; preds = %174
  br label %177

177:                                              ; preds = %176, %131
  %178 = load ptr, ptr %16, align 8
  %179 = getelementptr inbounds nuw %struct.LockInstanceData, ptr %178, i32 0, i32 6
  %180 = load i32, ptr %179, align 4
  %181 = call i64 @Int32GetDatum(i32 noundef %180)
  %182 = load ptr, ptr %4, align 8
  %183 = load i32, ptr %5, align 4
  %184 = add i32 %183, 1
  store i32 %184, ptr %5, align 4
  %185 = sext i32 %183 to i64
  %186 = getelementptr inbounds i64, ptr %182, i64 %185
  store i64 %181, ptr %186, align 8
  store i32 0, ptr %17, align 4
  br label %187

187:                                              ; preds = %177, %175, %172, %123, %114
  call void @llvm.lifetime.end.p0(i64 8, ptr %16) #5
  %188 = load i32, ptr %17, align 4
  switch i32 %188, label %202 [
    i32 0, label %189
    i32 10, label %190
  ]

189:                                              ; preds = %187
  br label %190

190:                                              ; preds = %189, %187
  %191 = load i32, ptr %8, align 4
  %192 = add i32 %191, 1
  store i32 %192, ptr %8, align 4
  br label %100, !llvm.loop !11

193:                                              ; preds = %100
  call void @llvm.lifetime.end.p0(i64 4, ptr %14) #5
  call void @llvm.lifetime.end.p0(i64 8, ptr %13) #5
  call void @llvm.lifetime.end.p0(i64 8, ptr %12) #5
  call void @llvm.lifetime.end.p0(i64 8, ptr %11) #5
  call void @llvm.lifetime.end.p0(i64 8, ptr %10) #5
  call void @llvm.lifetime.end.p0(i64 8, ptr %9) #5
  br label %194

194:                                              ; preds = %193
  %195 = load i32, ptr %7, align 4
  %196 = add i32 %195, 1
  store i32 %196, ptr %7, align 4
  br label %34, !llvm.loop !12

197:                                              ; preds = %34
  %198 = load ptr, ptr %4, align 8
  %199 = load i32, ptr %5, align 4
  %200 = call ptr @construct_array_builtin(ptr noundef %198, i32 noundef %199, i32 noundef 23)
  %201 = call i64 @PointerGetDatum(ptr noundef %200)
  store i32 1, ptr %17, align 4
  call void @llvm.lifetime.end.p0(i64 4, ptr %8) #5
  call void @llvm.lifetime.end.p0(i64 4, ptr %7) #5
  call void @llvm.lifetime.end.p0(i64 8, ptr %6) #5
  call void @llvm.lifetime.end.p0(i64 4, ptr %5) #5
  call void @llvm.lifetime.end.p0(i64 8, ptr %4) #5
  call void @llvm.lifetime.end.p0(i64 4, ptr %3) #5
  ret i64 %201

202:                                              ; preds = %187
  unreachable
}