; Function Attrs: nounwind uwtable
define dso_local i64 @pg_blocking_pids(ptr noundef readonly captures(none) %0) local_unnamed_addr #0 {
  %2 = getelementptr inbounds nuw i8, ptr %0, i64 32
  %3 = load i64, ptr %2, align 8
  %4 = trunc i64 %3 to i32
  %5 = tail call ptr @GetBlockerStatusData(i32 noundef %4) #4
  %6 = getelementptr inbounds nuw i8, ptr %5, i64 32
  %7 = load i32, ptr %6, align 8
  %8 = sext i32 %7 to i64
  %9 = shl nsw i64 %8, 3
  %10 = tail call ptr @palloc(i64 noundef %9) #4
  %11 = getelementptr inbounds nuw i8, ptr %5, i64 24
  %12 = load i32, ptr %11, align 8
  %13 = icmp sgt i32 %12, 0
  br i1 %13, label %.lr.ph74, label %._crit_edge75

.lr.ph74:                                         ; preds = %1
  %14 = getelementptr inbounds nuw i8, ptr %5, i64 8
  %15 = getelementptr inbounds nuw i8, ptr %5, i64 16
  br label %16

16:                                               ; preds = %.lr.ph74, %._crit_edge69
  %indvars.iv86 = phi i64 [ 0, %.lr.ph74 ], [ %indvars.iv.next87, %._crit_edge69 ]
  %.05172 = phi i32 [ 0, %.lr.ph74 ], [ %.1.lcssa, %._crit_edge69 ]
  %17 = load ptr, ptr %5, align 8
  %18 = getelementptr inbounds nuw %struct.BlockedProcData, ptr %17, i64 %indvars.iv86
  %19 = load ptr, ptr %14, align 8
  %20 = getelementptr inbounds nuw i8, ptr %18, i64 4
  %21 = load i32, ptr %20, align 4
  %22 = sext i32 %21 to i64
  %23 = getelementptr inbounds %struct.LockInstanceData, ptr %19, i64 %22
  %24 = load ptr, ptr %15, align 8
  %25 = getelementptr inbounds nuw i8, ptr %18, i64 12
  %26 = load i32, ptr %25, align 4
  %27 = sext i32 %26 to i64
  %28 = getelementptr inbounds i32, ptr %24, i64 %27
  %29 = getelementptr inbounds nuw i8, ptr %18, i64 8
  %30 = load i32, ptr %29, align 4
  %31 = icmp sgt i32 %30, 0
  br i1 %31, label %.lr.ph, label %._crit_edge

.lr.ph:                                           ; preds = %16
  %32 = load i32, ptr %18, align 4
  %wide.trip.count = zext nneg i32 %30 to i64
  br label %33

33:                                               ; preds = %.lr.ph, %33
  %indvars.iv = phi i64 [ 0, %.lr.ph ], [ %indvars.iv.next, %33 ]
  %.05561 = phi ptr [ null, %.lr.ph ], [ %spec.select, %33 ]
  %34 = getelementptr inbounds nuw %struct.LockInstanceData, ptr %23, i64 %indvars.iv
  %35 = getelementptr inbounds nuw i8, ptr %34, i64 40
  %36 = load i32, ptr %35, align 8
  %37 = icmp eq i32 %36, %32
  %spec.select = select i1 %37, ptr %34, ptr %.05561
  %indvars.iv.next = add nuw nsw i64 %indvars.iv, 1
  %exitcond.not = icmp eq i64 %indvars.iv.next, %wide.trip.count
  br i1 %exitcond.not, label %._crit_edge, label %33, !llvm.loop !8

._crit_edge:                                      ; preds = %33, %16
  %.055.lcssa = phi ptr [ null, %16 ], [ %spec.select, %33 ]
  %38 = tail call ptr @GetLockTagsMethodTable(ptr noundef %.055.lcssa) #4
  %39 = getelementptr inbounds nuw i8, ptr %38, i64 8
  %40 = load ptr, ptr %39, align 8
  %41 = getelementptr inbounds nuw i8, ptr %.055.lcssa, i64 20
  %42 = load i32, ptr %41, align 4
  %43 = sext i32 %42 to i64
  %44 = getelementptr inbounds i32, ptr %40, i64 %43
  %45 = load i32, ptr %44, align 4
  %46 = load i32, ptr %29, align 4
  %47 = icmp sgt i32 %46, 0
  br i1 %47, label %.lr.ph68, label %._crit_edge69

.lr.ph68:                                         ; preds = %._crit_edge
  %48 = getelementptr inbounds nuw i8, ptr %.055.lcssa, i64 44
  %49 = getelementptr inbounds nuw i8, ptr %18, i64 16
  br label %50

50:                                               ; preds = %.lr.ph68, %.critedge
  %51 = phi i32 [ %46, %.lr.ph68 ], [ %82, %.critedge ]
  %indvars.iv83 = phi i64 [ 0, %.lr.ph68 ], [ %indvars.iv.next84, %.critedge ]
  %.166 = phi i32 [ %.05172, %.lr.ph68 ], [ %.2, %.critedge ]
  %52 = getelementptr inbounds nuw %struct.LockInstanceData, ptr %23, i64 %indvars.iv83
  %53 = icmp eq ptr %52, %.055.lcssa
  br i1 %53, label %.critedge, label %54

54:                                               ; preds = %50
  %55 = getelementptr inbounds nuw i8, ptr %52, i64 44
  %56 = load i32, ptr %55, align 4
  %57 = load i32, ptr %48, align 4
  %58 = icmp eq i32 %56, %57
  br i1 %58, label %.critedge, label %59

59:                                               ; preds = %54
  %60 = getelementptr inbounds nuw i8, ptr %52, i64 16
  %61 = load i32, ptr %60, align 8
  %62 = and i32 %61, %45
  %.not = icmp eq i32 %62, 0
  br i1 %.not, label %63, label %.loopexit

63:                                               ; preds = %59
  %64 = getelementptr inbounds nuw i8, ptr %52, i64 20
  %65 = load i32, ptr %64, align 4
  %.not59 = icmp eq i32 %65, 0
  br i1 %.not59, label %.critedge, label %66

66:                                               ; preds = %63
  %67 = shl nuw i32 1, %65
  %68 = and i32 %67, %45
  %.not60 = icmp eq i32 %68, 0
  br i1 %.not60, label %.critedge, label %.preheader

.preheader:                                       ; preds = %66
  %69 = load i32, ptr %49, align 4
  %70 = icmp sgt i32 %69, 0
  br i1 %70, label %.lr.ph64, label %.critedge

.lr.ph64:                                         ; preds = %.preheader
  %71 = getelementptr inbounds nuw i8, ptr %52, i64 40
  %72 = load i32, ptr %71, align 8
  %wide.trip.count81 = zext nneg i32 %69 to i64
  br label %74

73:                                               ; preds = %74
  %indvars.iv.next79 = add nuw nsw i64 %indvars.iv78, 1
  %exitcond82.not = icmp eq i64 %indvars.iv.next79, %wide.trip.count81
  br i1 %exitcond82.not, label %.critedge, label %74, !llvm.loop !9

74:                                               ; preds = %.lr.ph64, %73
  %indvars.iv78 = phi i64 [ 0, %.lr.ph64 ], [ %indvars.iv.next79, %73 ]
  %75 = getelementptr inbounds nuw i32, ptr %28, i64 %indvars.iv78
  %76 = load i32, ptr %75, align 4
  %77 = icmp eq i32 %76, %72
  br i1 %77, label %.loopexit, label %73

.loopexit:                                        ; preds = %74, %59
  %78 = sext i32 %56 to i64
  %79 = add i32 %.166, 1
  %80 = sext i32 %.166 to i64
  %81 = getelementptr inbounds i64, ptr %10, i64 %80
  store i64 %78, ptr %81, align 8
  %.pre = load i32, ptr %29, align 4
  br label %.critedge

.critedge:                                        ; preds = %73, %.preheader, %63, %66, %54, %50, %.loopexit
  %82 = phi i32 [ %.pre, %.loopexit ], [ %51, %50 ], [ %51, %54 ], [ %51, %66 ], [ %51, %63 ], [ %51, %.preheader ], [ %51, %73 ]
  %.2 = phi i32 [ %79, %.loopexit ], [ %.166, %50 ], [ %.166, %54 ], [ %.166, %66 ], [ %.166, %63 ], [ %.166, %.preheader ], [ %.166, %73 ]
  %indvars.iv.next84 = add nuw nsw i64 %indvars.iv83, 1
  %83 = sext i32 %82 to i64
  %84 = icmp slt i64 %indvars.iv.next84, %83
  br i1 %84, label %50, label %._crit_edge69, !llvm.loop !10

._crit_edge69:                                    ; preds = %.critedge, %._crit_edge
  %.1.lcssa = phi i32 [ %.05172, %._crit_edge ], [ %.2, %.critedge ]
  %indvars.iv.next87 = add nuw nsw i64 %indvars.iv86, 1
  %85 = load i32, ptr %11, align 8
  %86 = sext i32 %85 to i64
  %87 = icmp slt i64 %indvars.iv.next87, %86
  br i1 %87, label %16, label %._crit_edge75, !llvm.loop !11

._crit_edge75:                                    ; preds = %._crit_edge69, %1
  %.051.lcssa = phi i32 [ 0, %1 ], [ %.1.lcssa, %._crit_edge69 ]
  %88 = tail call ptr @construct_array_builtin(ptr noundef %10, i32 noundef %.051.lcssa, i32 noundef 23) #4
  %89 = ptrtoint ptr %88 to i64
  ret i64 %89
}